; Function Attrs: mustprogress uwtable
define hidden void @_ZN6spacer20ground_sat_answer_opC2ERKNS_7contextE(ptr noundef nonnull align 8 dereferenceable(72) initializes((0, 40)) %0, ptr noundef nonnull align 8 dereferenceable(712) %1) unnamed_addr #3 align 2 personality ptr @__gxx_personality_v0 {
  store ptr %1, ptr %0, align 8, !tbaa !3
  %3 = getelementptr inbounds nuw i8, ptr %0, i64 8
  %4 = getelementptr inbounds nuw i8, ptr %1, i64 152
  %5 = load ptr, ptr %4, align 8, !tbaa !8
  store ptr %5, ptr %3, align 8, !tbaa !65
  %6 = getelementptr inbounds nuw i8, ptr %0, i64 16
  %7 = getelementptr inbounds nuw i8, ptr %1, i64 168
  store ptr %7, ptr %6, align 8, !tbaa !66
  %8 = getelementptr inbounds nuw i8, ptr %0, i64 24
  %9 = ptrtoint ptr %5 to i64
  store i64 %9, ptr %8, align 8, !tbaa !65
  %10 = getelementptr inbounds nuw i8, ptr %0, i64 32
  store ptr null, ptr %10, align 8, !tbaa !68
  %11 = invoke noalias noundef ptr @_ZN6memory8allocateEm(i64 noundef 128)
          to label %12 unwind label %18

12:                                               ; preds = %2
  %13 = getelementptr inbounds nuw i8, ptr %0, i64 40
  tail call void @llvm.memset.p0.i64(ptr noundef nonnull align 8 dereferenceable(128) %11, i8 0, i64 128, i1 false)
  store ptr %11, ptr %13, align 8, !tbaa !71
  %14 = getelementptr inbounds nuw i8, ptr %0, i64 48
  store i32 8, ptr %14, align 8, !tbaa !74
  %15 = getelementptr inbounds nuw i8, ptr %0, i64 52
  store i32 0, ptr %15, align 4, !tbaa !75
  %16 = getelementptr inbounds nuw i8, ptr %0, i64 56
  store i32 0, ptr %16, align 8, !tbaa !76
  %17 = getelementptr inbounds nuw i8, ptr %0, i64 64
  store ptr null, ptr %17, align 8, !tbaa !77
  ret void

18:                                               ; preds = %2
  %19 = landingpad { ptr, i32 }
          cleanup
  tail call void @_ZN15ref_vector_coreI4expr19ref_manager_wrapperIS0_11ast_managerEED2Ev(ptr noundef nonnull align 8 dereferenceable(16) %8) #19
  resume { ptr, i32 } %19
}